target datalayout = "e-m:e-p270:32:32-p271:32:32-p272:64:64-i64:64-i128:128-f80:128-n8:16:32:64-S128"
target triple = "x86_64-unknown-linux-gnu"

%"class.std::__cxx11::basic_string" = type { %"struct.std::__cxx11::basic_string<char>::_Alloc_hider", i64, %union.anon }
%"struct.std::__cxx11::basic_string<char>::_Alloc_hider" = type { ptr }
%union.anon = type { i64, [8 x i8] }
%"class.rocksdb::Slice" = type { ptr, i64 }
%"class.std::shared_ptr.18" = type { %"class.std::__shared_ptr.19" }
%"class.std::__shared_ptr.19" = type { ptr, %"class.std::__shared_count" }
%"class.std::__shared_count" = type { ptr }
%"class.rocksdb::CompactionJob" = type { ptr, ptr, %"struct.rocksdb::InternalStats::CompactionStatsFull", ptr, %"struct.rocksdb::MutableDBOptions", ptr, ptr, ptr, i8, i32, %"class.rocksdb::IOStatus", ptr, i32, ptr, %"class.std::__cxx11::basic_string", %"class.std::__cxx11::basic_string", %"struct.rocksdb::FileOptions", ptr, %"class.std::shared_ptr.15", %"class.rocksdb::FileSystemPtr", %"struct.rocksdb::FileOptions", ptr, ptr, ptr, ptr, ptr, ptr, ptr, %"class.std::vector.3", i64, ptr, ptr, %"class.std::shared_ptr", ptr, i8, i8, %"class.std::vector.24", i32, %"class.std::__cxx11::basic_string", %"class.std::__cxx11::basic_string", ptr, i32, ptr, ptr, %"class.rocksdb::SeqnoToTimeMapping", i64, i64 }
%"struct.rocksdb::InternalStats::CompactionStatsFull" = type { %"struct.rocksdb::InternalStats::CompactionStats", i8, [7 x i8], %"struct.rocksdb::InternalStats::CompactionStats" }
%"struct.rocksdb::InternalStats::CompactionStats" = type <{ i64, i64, i64, i64, i64, i64, i64, i64, i32, i32, i32, i32, i64, i64, i64, i32, [20 x i32], [4 x i8] }>
%"struct.rocksdb::MutableDBOptions" = type { i32, i32, i32, i8, i64, i64, i64, i64, i32, i32, i64, i32, i64, i64, i8, i64, i32, %"class.std::__cxx11::basic_string" }
%"class.rocksdb::IOStatus" = type { %"class.rocksdb::Status" }
%"class.rocksdb::Status" = type { i8, i8, i8, i8, i8, i8, %"class.std::unique_ptr" }
%"class.std::unique_ptr" = type { %"struct.std::__uniq_ptr_data" }
%"struct.std::__uniq_ptr_data" = type { %"class.std::__uniq_ptr_impl" }
%"class.std::__uniq_ptr_impl" = type { %"class.std::tuple" }
%"class.std::tuple" = type { %"struct.std::_Tuple_impl" }
%"struct.std::_Tuple_impl" = type { %"struct.std::_Head_base.9" }
%"struct.std::_Head_base.9" = type { ptr }
%"class.std::shared_ptr.15" = type { %"class.std::__shared_ptr.16" }
%"class.std::__shared_ptr.16" = type { ptr, %"class.std::__shared_count" }
%"class.rocksdb::FileSystemPtr" = type { %"class.std::shared_ptr.18", %"class.std::shared_ptr.15", %"class.std::shared_ptr.21" }
%"class.std::shared_ptr.21" = type { %"class.std::__shared_ptr.22" }
%"class.std::__shared_ptr.22" = type { ptr, %"class.std::__shared_count" }
%"struct.rocksdb::FileOptions" = type <{ %"struct.rocksdb::EnvOptions", %"struct.rocksdb::IOOptions", i8, i8, [6 x i8] }>
%"struct.rocksdb::EnvOptions" = type { i8, i8, i8, i8, i8, i8, i64, i8, i8, i64, i64, i64, ptr }
%"struct.rocksdb::IOOptions" = type <{ %"class.std::chrono::duration", i8, [3 x i8], i32, i8, [7 x i8], %"class.std::unordered_map", i8, i8, i8, [5 x i8] }>
%"class.std::chrono::duration" = type { i64 }
%"class.std::unordered_map" = type { %"class.std::_Hashtable" }
%"class.std::_Hashtable" = type { ptr, i64, %"struct.std::__detail::_Hash_node_base", i64, %"struct.std::__detail::_Prime_rehash_policy", ptr }
%"struct.std::__detail::_Hash_node_base" = type { ptr }
%"struct.std::__detail::_Prime_rehash_policy" = type { float, i64 }
%"class.std::vector.3" = type { %"struct.std::_Vector_base.4" }
%"struct.std::_Vector_base.4" = type { %"struct.std::_Vector_base<unsigned long, std::allocator<unsigned long>>::_Vector_impl" }
%"struct.std::_Vector_base<unsigned long, std::allocator<unsigned long>>::_Vector_impl" = type { %"struct.std::_Vector_base<unsigned long, std::allocator<unsigned long>>::_Vector_impl_data" }
%"struct.std::_Vector_base<unsigned long, std::allocator<unsigned long>>::_Vector_impl_data" = type { ptr, ptr, ptr }
%"class.std::shared_ptr" = type { %"class.std::__shared_ptr" }
%"class.std::__shared_ptr" = type { ptr, %"class.std::__shared_count" }
%"class.std::vector.24" = type { %"struct.std::_Vector_base.25" }
%"struct.std::_Vector_base.25" = type { %"struct.std::_Vector_base<std::__cxx11::basic_string<char>, std::allocator<std::__cxx11::basic_string<char>>>::_Vector_impl" }
%"struct.std::_Vector_base<std::__cxx11::basic_string<char>, std::allocator<std::__cxx11::basic_string<char>>>::_Vector_impl" = type { %"struct.std::_Vector_base<std::__cxx11::basic_string<char>, std::allocator<std::__cxx11::basic_string<char>>>::_Vector_impl_data" }
%"struct.std::_Vector_base<std::__cxx11::basic_string<char>, std::allocator<std::__cxx11::basic_string<char>>>::_Vector_impl_data" = type { ptr, ptr, ptr }
%"class.rocksdb::SeqnoToTimeMapping" = type <{ i64, i64, %"class.std::deque", i8, [7 x i8] }>
%"class.std::deque" = type { %"class.std::_Deque_base" }
%"class.std::_Deque_base" = type { %"struct.std::_Deque_base<rocksdb::SeqnoToTimeMapping::SeqnoTimePair, std::allocator<rocksdb::SeqnoToTimeMapping::SeqnoTimePair>>::_Deque_impl" }
%"struct.std::_Deque_base<rocksdb::SeqnoToTimeMapping::SeqnoTimePair, std::allocator<rocksdb::SeqnoToTimeMapping::SeqnoTimePair>>::_Deque_impl" = type { %"struct.std::_Deque_base<rocksdb::SeqnoToTimeMapping::SeqnoTimePair, std::allocator<rocksdb::SeqnoToTimeMapping::SeqnoTimePair>>::_Deque_impl_data" }
%"struct.std::_Deque_base<rocksdb::SeqnoToTimeMapping::SeqnoTimePair, std::allocator<rocksdb::SeqnoToTimeMapping::SeqnoTimePair>>::_Deque_impl_data" = type { ptr, i64, %"struct.std::_Deque_iterator", %"struct.std::_Deque_iterator" }
%"struct.std::_Deque_iterator" = type { ptr, ptr, ptr, ptr }
%"struct.rocksdb::CompactionJobStats" = type { i64, i64, i8, i64, i64, i64, i64, i64, i64, i64, i8, i8, i64, i64, i64, i64, i64, i64, i64, i64, i64, i64, i64, i64, i64, i64, %"class.std::__cxx11::basic_string", %"class.std::__cxx11::basic_string", i64, i64 }

; Function Attrs: mustprogress nounwind uwtable
define linkonce_odr noundef ptr @_ZNK7rocksdb5Slice4dataEv(ptr noundef nonnull align 8 dereferenceable(16) %this) #1 comdat align 2 {
entry:
  %this.addr = alloca ptr, align 8
  store ptr %this, ptr %this.addr, align 8
  %this1 = load ptr, ptr %this.addr, align 8
  %data_ = getelementptr inbounds %"class.rocksdb::Slice", ptr %this1, i32 0, i32 0
  %0 = load ptr, ptr %data_, align 8
  ret ptr %0
}

; Function Attrs: mustprogress nounwind uwtable
define linkonce_odr noundef i64 @_ZNK7rocksdb5Slice4sizeEv(ptr noundef nonnull align 8 dereferenceable(16) %this) #1 comdat align 2 {
entry:
  %this.addr = alloca ptr, align 8
  store ptr %this, ptr %this.addr, align 8
  %this1 = load ptr, ptr %this.addr, align 8
  %size_ = getelementptr inbounds %"class.rocksdb::Slice", ptr %this1, i32 0, i32 1
  %0 = load i64, ptr %size_, align 8
  ret i64 %0
}

; Function Attrs: mustprogress uwtable
define internal void @_ZN7rocksdb12_GLOBAL__N_110CopyPrefixERKNS_5SliceEmPNSt7__cxx1112basic_stringIcSt11char_traitsIcESaIcEEE(ptr noundef nonnull align 8 dereferenceable(16) %src, i64 noundef %prefix_length, ptr noundef %dst) #0 {
entry:
  %src.addr = alloca ptr, align 8
  %prefix_length.addr = alloca i64, align 8
  %dst.addr = alloca ptr, align 8
  %length = alloca i64, align 8
  store ptr %src, ptr %src.addr, align 8
  store i64 %prefix_length, ptr %prefix_length.addr, align 8
  store ptr %dst, ptr %dst.addr, align 8
  %0 = load ptr, ptr %src.addr, align 8
  %call = call noundef i64 @_ZNK7rocksdb5Slice4sizeEv(ptr noundef nonnull align 8 dereferenceable(16) %0)
  %1 = load i64, ptr %prefix_length.addr, align 8
  %cmp = icmp ugt i64 %call, %1
  br i1 %cmp, label %cond.true, label %cond.false

cond.true:                                        ; preds = %entry
  %2 = load i64, ptr %prefix_length.addr, align 8
  br label %cond.end

cond.false:                                       ; preds = %entry
  %3 = load ptr, ptr %src.addr, align 8
  %call1 = call noundef i64 @_ZNK7rocksdb5Slice4sizeEv(ptr noundef nonnull align 8 dereferenceable(16) %3)
  br label %cond.end

cond.end:                                         ; preds = %cond.false, %cond.true
  %cond = phi i64 [ %2, %cond.true ], [ %call1, %cond.false ]
  store i64 %cond, ptr %length, align 8
  %4 = load ptr, ptr %dst.addr, align 8
  %5 = load ptr, ptr %src.addr, align 8
  %call2 = call noundef ptr @_ZNK7rocksdb5Slice4dataEv(ptr noundef nonnull align 8 dereferenceable(16) %5)
  %6 = load i64, ptr %length, align 8
  %call3 = call noundef nonnull align 8 dereferenceable(32) ptr @_ZNSt7__cxx1112basic_stringIcSt11char_traitsIcESaIcEE6assignEPKcm(ptr noundef nonnull align 8 dereferenceable(32) %4, ptr noundef %call2, i64 noundef %6)
  ret void
}

; Function Attrs: mustprogress uwtable
define void @_ZNK7rocksdb13CompactionJob24UpdateCompactionJobStatsERKNS_13InternalStats15CompactionStatsE(ptr noundef nonnull align 8 dereferenceable(1456) %this, ptr noundef nonnull align 8 dereferenceable(188) %stats) #0 align 2 {
entry:
  %this.addr = alloca ptr, align 8
  %stats.addr = alloca ptr, align 8
  %ref.tmp = alloca %"class.rocksdb::Slice", align 8
  %ref.tmp22 = alloca %"class.rocksdb::Slice", align 8
  store ptr %this, ptr %this.addr, align 8
  store ptr %stats, ptr %stats.addr, align 8
  %this1 = load ptr, ptr %this.addr, align 8
  %0 = load ptr, ptr %stats.addr, align 8
  %micros = getelementptr inbounds %"struct.rocksdb::InternalStats::CompactionStats", ptr %0, i32 0, i32 0
  %1 = load i64, ptr %micros, align 8
  %compaction_job_stats_ = getelementptr inbounds %"class.rocksdb::CompactionJob", ptr %this1, i32 0, i32 11
  %2 = load ptr, ptr %compaction_job_stats_, align 8
  %elapsed_micros = getelementptr inbounds %"struct.rocksdb::CompactionJobStats", ptr %2, i32 0, i32 0
  store i64 %1, ptr %elapsed_micros, align 8
  %3 = load ptr, ptr %stats.addr, align 8
  %bytes_read_non_output_levels = getelementptr inbounds %"struct.rocksdb::InternalStats::CompactionStats", ptr %3, i32 0, i32 2
  %4 = load i64, ptr %bytes_read_non_output_levels, align 8
  %5 = load ptr, ptr %stats.addr, align 8
  %bytes_read_output_level = getelementptr inbounds %"struct.rocksdb::InternalStats::CompactionStats", ptr %5, i32 0, i32 3
  %6 = load i64, ptr %bytes_read_output_level, align 8
  %add = add i64 %4, %6
  %compaction_job_stats_2 = getelementptr inbounds %"class.rocksdb::CompactionJob", ptr %this1, i32 0, i32 11
  %7 = load ptr, ptr %compaction_job_stats_2, align 8
  %total_input_bytes = getelementptr inbounds %"struct.rocksdb::CompactionJobStats", ptr %7, i32 0, i32 12
  store i64 %add, ptr %total_input_bytes, align 8
  %8 = load ptr, ptr %stats.addr, align 8
  %num_input_records = getelementptr inbounds %"struct.rocksdb::InternalStats::CompactionStats", ptr %8, i32 0, i32 12
  %9 = load i64, ptr %num_input_records, align 8
  %compaction_job_stats_3 = getelementptr inbounds %"class.rocksdb::CompactionJob", ptr %this1, i32 0, i32 11
  %10 = load ptr, ptr %compaction_job_stats_3, align 8
  %num_input_records4 = getelementptr inbounds %"struct.rocksdb::CompactionJobStats", ptr %10, i32 0, i32 3
  store i64 %9, ptr %num_input_records4, align 8
  %11 = load ptr, ptr %stats.addr, align 8
  %num_input_files_in_non_output_levels = getelementptr inbounds %"struct.rocksdb::InternalStats::CompactionStats", ptr %11, i32 0, i32 8
  %12 = load i32, ptr %num_input_files_in_non_output_levels, align 8
  %13 = load ptr, ptr %stats.addr, align 8
  %num_input_files_in_output_level = getelementptr inbounds %"struct.rocksdb::InternalStats::CompactionStats", ptr %13, i32 0, i32 9
  %14 = load i32, ptr %num_input_files_in_output_level, align 4
  %add5 = add nsw i32 %12, %14
  %conv = sext i32 %add5 to i64
  %compaction_job_stats_6 = getelementptr inbounds %"class.rocksdb::CompactionJob", ptr %this1, i32 0, i32 11
  %15 = load ptr, ptr %compaction_job_stats_6, align 8
  %num_input_files = getelementptr inbounds %"struct.rocksdb::CompactionJobStats", ptr %15, i32 0, i32 5
  store i64 %conv, ptr %num_input_files, align 8
  %16 = load ptr, ptr %stats.addr, align 8
  %num_input_files_in_output_level7 = getelementptr inbounds %"struct.rocksdb::InternalStats::CompactionStats", ptr %16, i32 0, i32 9
  %17 = load i32, ptr %num_input_files_in_output_level7, align 4
  %conv8 = sext i32 %17 to i64
  %compaction_job_stats_9 = getelementptr inbounds %"class.rocksdb::CompactionJob", ptr %this1, i32 0, i32 11
  %18 = load ptr, ptr %compaction_job_stats_9, align 8
  %num_input_files_at_output_level = getelementptr inbounds %"struct.rocksdb::CompactionJobStats", ptr %18, i32 0, i32 6
  store i64 %conv8, ptr %num_input_files_at_output_level, align 8
  %19 = load ptr, ptr %stats.addr, align 8
  %bytes_written = getelementptr inbounds %"struct.rocksdb::InternalStats::CompactionStats", ptr %19, i32 0, i32 5
  %20 = load i64, ptr %bytes_written, align 8
  %compaction_job_stats_10 = getelementptr inbounds %"class.rocksdb::CompactionJob", ptr %this1, i32 0, i32 11
  %21 = load ptr, ptr %compaction_job_stats_10, align 8
  %total_output_bytes = getelementptr inbounds %"struct.rocksdb::CompactionJobStats", ptr %21, i32 0, i32 14
  store i64 %20, ptr %total_output_bytes, align 8
  %22 = load ptr, ptr %stats.addr, align 8
  %bytes_written_blob = getelementptr inbounds %"struct.rocksdb::InternalStats::CompactionStats", ptr %22, i32 0, i32 6
  %23 = load i64, ptr %bytes_written_blob, align 8
  %compaction_job_stats_11 = getelementptr inbounds %"class.rocksdb::CompactionJob", ptr %this1, i32 0, i32 11
  %24 = load ptr, ptr %compaction_job_stats_11, align 8
  %total_output_bytes_blob = getelementptr inbounds %"struct.rocksdb::CompactionJobStats", ptr %24, i32 0, i32 15
  store i64 %23, ptr %total_output_bytes_blob, align 8
  %25 = load ptr, ptr %stats.addr, align 8
  %num_output_records = getelementptr inbounds %"struct.rocksdb::InternalStats::CompactionStats", ptr %25, i32 0, i32 14
  %26 = load i64, ptr %num_output_records, align 8
  %compaction_job_stats_12 = getelementptr inbounds %"class.rocksdb::CompactionJob", ptr %this1, i32 0, i32 11
  %27 = load ptr, ptr %compaction_job_stats_12, align 8
  %num_output_records13 = getelementptr inbounds %"struct.rocksdb::CompactionJobStats", ptr %27, i32 0, i32 7
  store i64 %26, ptr %num_output_records13, align 8
  %28 = load ptr, ptr %stats.addr, align 8
  %num_output_files = getelementptr inbounds %"struct.rocksdb::InternalStats::CompactionStats", ptr %28, i32 0, i32 10
  %29 = load i32, ptr %num_output_files, align 8
  %conv14 = sext i32 %29 to i64
  %compaction_job_stats_15 = getelementptr inbounds %"class.rocksdb::CompactionJob", ptr %this1, i32 0, i32 11
  %30 = load ptr, ptr %compaction_job_stats_15, align 8
  %num_output_files16 = getelementptr inbounds %"struct.rocksdb::CompactionJobStats", ptr %30, i32 0, i32 8
  store i64 %conv14, ptr %num_output_files16, align 8
  %31 = load ptr, ptr %stats.addr, align 8
  %num_output_files_blob = getelementptr inbounds %"struct.rocksdb::InternalStats::CompactionStats", ptr %31, i32 0, i32 11
  %32 = load i32, ptr %num_output_files_blob, align 4
  %conv17 = sext i32 %32 to i64
  %compaction_job_stats_18 = getelementptr inbounds %"class.rocksdb::CompactionJob", ptr %this1, i32 0, i32 11
  %33 = load ptr, ptr %compaction_job_stats_18, align 8
  %num_output_files_blob19 = getelementptr inbounds %"struct.rocksdb::CompactionJobStats", ptr %33, i32 0, i32 9
  store i64 %conv17, ptr %num_output_files_blob19, align 8
  %34 = load ptr, ptr %stats.addr, align 8
  %num_output_files20 = getelementptr inbounds %"struct.rocksdb::InternalStats::CompactionStats", ptr %34, i32 0, i32 10
  %35 = load i32, ptr %num_output_files20, align 8
  %cmp = icmp sgt i32 %35, 0
  br i1 %cmp, label %if.then, label %if.end

if.then:                                          ; preds = %entry
  %compact_ = getelementptr inbounds %"class.rocksdb::CompactionJob", ptr %this1, i32 0, i32 1
  %36 = load ptr, ptr %compact_, align 8
  %call = call { ptr, i64 } @_ZN7rocksdb15CompactionState15SmallestUserKeyEv(ptr noundef nonnull align 8 dereferenceable(48) %36)
  %37 = getelementptr inbounds { ptr, i64 }, ptr %ref.tmp, i32 0, i32 0
  %38 = extractvalue { ptr, i64 } %call, 0
  store ptr %38, ptr %37, align 8
  %39 = getelementptr inbounds { ptr, i64 }, ptr %ref.tmp, i32 0, i32 1
  %40 = extractvalue { ptr, i64 } %call, 1
  store i64 %40, ptr %39, align 8
  %compaction_job_stats_21 = getelementptr inbounds %"class.rocksdb::CompactionJob", ptr %this1, i32 0, i32 11
  %41 = load ptr, ptr %compaction_job_stats_21, align 8
  %smallest_output_key_prefix = getelementptr inbounds %"struct.rocksdb::CompactionJobStats", ptr %41, i32 0, i32 26
  call void @_ZN7rocksdb12_GLOBAL__N_110CopyPrefixERKNS_5SliceEmPNSt7__cxx1112basic_stringIcSt11char_traitsIcESaIcEEE(ptr noundef nonnull align 8 dereferenceable(16) %ref.tmp, i64 noundef 8, ptr noundef %smallest_output_key_prefix)
  %compact_23 = getelementptr inbounds %"class.rocksdb::CompactionJob", ptr %this1, i32 0, i32 1
  %42 = load ptr, ptr %compact_23, align 8
  %call24 = call { ptr, i64 } @_ZN7rocksdb15CompactionState14LargestUserKeyEv(ptr noundef nonnull align 8 dereferenceable(48) %42)
  %43 = getelementptr inbounds { ptr, i64 }, ptr %ref.tmp22, i32 0, i32 0
  %44 = extractvalue { ptr, i64 } %call24, 0
  store ptr %44, ptr %43, align 8
  %45 = getelementptr inbounds { ptr, i64 }, ptr %ref.tmp22, i32 0, i32 1
  %46 = extractvalue { ptr, i64 } %call24, 1
  store i64 %46, ptr %45, align 8
  %compaction_job_stats_25 = getelementptr inbounds %"class.rocksdb::CompactionJob", ptr %this1, i32 0, i32 11
  %47 = load ptr, ptr %compaction_job_stats_25, align 8
  %largest_output_key_prefix = getelementptr inbounds %"struct.rocksdb::CompactionJobStats", ptr %47, i32 0, i32 27
  call void @_ZN7rocksdb12_GLOBAL__N_110CopyPrefixERKNS_5SliceEmPNSt7__cxx1112basic_stringIcSt11char_traitsIcESaIcEEE(ptr noundef nonnull align 8 dereferenceable(16) %ref.tmp22, i64 noundef 8, ptr noundef %largest_output_key_prefix)
  br label %if.end

if.end:                                           ; preds = %if.then, %entry
  ret void
}