; Function Attrs: mustprogress uwtable
define void @_ZNK7rocksdb13CompactionJob24UpdateCompactionJobStatsERKNS_13InternalStats15CompactionStatsE(ptr nocapture noundef nonnull readonly align 8 dereferenceable(1456) %this, ptr nocapture noundef nonnull readonly align 8 dereferenceable(188) %stats) local_unnamed_addr #5 align 2 {
entry:
  %0 = load i64, ptr %stats, align 8
  %compaction_job_stats_ = getelementptr inbounds i8, ptr %this, i64 608
  %1 = load ptr, ptr %compaction_job_stats_, align 8
  store i64 %0, ptr %1, align 8
  %bytes_read_non_output_levels = getelementptr inbounds i8, ptr %stats, i64 16
  %2 = load i64, ptr %bytes_read_non_output_levels, align 8
  %bytes_read_output_level = getelementptr inbounds i8, ptr %stats, i64 24
  %3 = load i64, ptr %bytes_read_output_level, align 8
  %add = add i64 %3, %2
  %4 = load ptr, ptr %compaction_job_stats_, align 8
  %total_input_bytes = getelementptr inbounds i8, ptr %4, i64 88
  store i64 %add, ptr %total_input_bytes, align 8
  %num_input_records = getelementptr inbounds i8, ptr %stats, i64 80
  %5 = load i64, ptr %num_input_records, align 8
  %6 = load ptr, ptr %compaction_job_stats_, align 8
  %num_input_records4 = getelementptr inbounds i8, ptr %6, i64 24
  store i64 %5, ptr %num_input_records4, align 8
  %num_input_files_in_non_output_levels = getelementptr inbounds i8, ptr %stats, i64 64
  %7 = load i32, ptr %num_input_files_in_non_output_levels, align 8
  %num_input_files_in_output_level = getelementptr inbounds i8, ptr %stats, i64 68
  %8 = load i32, ptr %num_input_files_in_output_level, align 4
  %add5 = add nsw i32 %8, %7
  %conv = sext i32 %add5 to i64
  %9 = load ptr, ptr %compaction_job_stats_, align 8
  %num_input_files = getelementptr inbounds i8, ptr %9, i64 40
  store i64 %conv, ptr %num_input_files, align 8
  %10 = load i32, ptr %num_input_files_in_output_level, align 4
  %conv8 = sext i32 %10 to i64
  %11 = load ptr, ptr %compaction_job_stats_, align 8
  %num_input_files_at_output_level = getelementptr inbounds i8, ptr %11, i64 48
  store i64 %conv8, ptr %num_input_files_at_output_level, align 8
  %bytes_written = getelementptr inbounds i8, ptr %stats, i64 40
  %12 = load i64, ptr %bytes_written, align 8
  %13 = load ptr, ptr %compaction_job_stats_, align 8
  %total_output_bytes = getelementptr inbounds i8, ptr %13, i64 104
  store i64 %12, ptr %total_output_bytes, align 8
  %bytes_written_blob = getelementptr inbounds i8, ptr %stats, i64 48
  %14 = load i64, ptr %bytes_written_blob, align 8
  %15 = load ptr, ptr %compaction_job_stats_, align 8
  %total_output_bytes_blob = getelementptr inbounds i8, ptr %15, i64 112
  store i64 %14, ptr %total_output_bytes_blob, align 8
  %num_output_records = getelementptr inbounds i8, ptr %stats, i64 96
  %16 = load i64, ptr %num_output_records, align 8
  %17 = load ptr, ptr %compaction_job_stats_, align 8
  %num_output_records13 = getelementptr inbounds i8, ptr %17, i64 56
  store i64 %16, ptr %num_output_records13, align 8
  %num_output_files = getelementptr inbounds i8, ptr %stats, i64 72
  %18 = load i32, ptr %num_output_files, align 8
  %conv14 = sext i32 %18 to i64
  %19 = load ptr, ptr %compaction_job_stats_, align 8
  %num_output_files16 = getelementptr inbounds i8, ptr %19, i64 64
  store i64 %conv14, ptr %num_output_files16, align 8
  %num_output_files_blob = getelementptr inbounds i8, ptr %stats, i64 76
  %20 = load i32, ptr %num_output_files_blob, align 4
  %conv17 = sext i32 %20 to i64
  %21 = load ptr, ptr %compaction_job_stats_, align 8
  %num_output_files_blob19 = getelementptr inbounds i8, ptr %21, i64 72
  store i64 %conv17, ptr %num_output_files_blob19, align 8
  %22 = load i32, ptr %num_output_files, align 8
  %cmp = icmp sgt i32 %22, 0
  br i1 %cmp, label %if.then, label %if.end

if.then:                                          ; preds = %entry
  %compact_ = getelementptr inbounds i8, ptr %this, i64 8
  %23 = load ptr, ptr %compact_, align 8
  %call = tail call { ptr, i64 } @_ZN7rocksdb15CompactionState15SmallestUserKeyEv(ptr noundef nonnull align 8 dereferenceable(48) %23)
  %24 = extractvalue { ptr, i64 } %call, 0
  %25 = extractvalue { ptr, i64 } %call, 1
  %26 = load ptr, ptr %compaction_job_stats_, align 8
  %smallest_output_key_prefix = getelementptr inbounds i8, ptr %26, i64 200
  %spec.select.i = tail call i64 @llvm.umin.i64(i64 %25, i64 8)
  %call3.i = tail call noundef nonnull align 8 dereferenceable(32) ptr @_ZNSt7__cxx1112basic_stringIcSt11char_traitsIcESaIcEE6assignEPKcm(ptr noundef nonnull align 8 dereferenceable(32) %smallest_output_key_prefix, ptr noundef %24, i64 noundef %spec.select.i)
  %27 = load ptr, ptr %compact_, align 8
  %call24 = tail call { ptr, i64 } @_ZN7rocksdb15CompactionState14LargestUserKeyEv(ptr noundef nonnull align 8 dereferenceable(48) %27)
  %28 = extractvalue { ptr, i64 } %call24, 0
  %29 = extractvalue { ptr, i64 } %call24, 1
  %30 = load ptr, ptr %compaction_job_stats_, align 8
  %largest_output_key_prefix = getelementptr inbounds i8, ptr %30, i64 232
  %spec.select.i15 = tail call i64 @llvm.umin.i64(i64 %29, i64 8)
  %call3.i16 = tail call noundef nonnull align 8 dereferenceable(32) ptr @_ZNSt7__cxx1112basic_stringIcSt11char_traitsIcESaIcEE6assignEPKcm(ptr noundef nonnull align 8 dereferenceable(32) %largest_output_key_prefix, ptr noundef %28, i64 noundef %spec.select.i15)
  br label %if.end

if.end:                                           ; preds = %if.then, %entry
  ret void
}